target datalayout = "e-m:e-p270:32:32-p271:32:32-p272:64:64-i64:64-i128:128-f80:128-n8:16:32:64-S128"
target triple = "x86_64-unknown-linux-gnu"

%struct.QemuEvent = type { i32, i8 }
%struct.QemuThread = type { i64 }
%struct.QemuSemaphore = type { %struct.QemuMutex, %struct.QemuCond, i32 }
%struct.QemuMutex = type { %union.pthread_mutex_t, i8 }
%union.pthread_mutex_t = type { %struct.__pthread_mutex_s }
%struct.__pthread_mutex_s = type { i32, i32, i32, i32, i32, i16, i16, %struct.__pthread_internal_list }
%struct.__pthread_internal_list = type { ptr, ptr }
%struct.QemuCond = type { %union.pthread_cond_t, i8 }
%union.pthread_cond_t = type { %struct.__pthread_cond_s }
%struct.__pthread_cond_s = type { %union.__atomic_wide_counter, %union.__atomic_wide_counter, [2 x i32], [2 x i32], i32, i32, [2 x i32] }
%union.__atomic_wide_counter = type { i64 }
%struct.MigrationState = type { %struct.DeviceState, %struct.QemuThread, ptr, ptr, ptr, ptr, %struct.QemuSemaphore, ptr, %struct.QemuMutex, %struct.QemuSemaphore, i64, double, i64, i64, i64, %struct.MigrationParameters, i32, %struct.anon.2, double, i64, i64, i64, i64, i64, [23 x i8], i64, i32, i8, i8, i8, i8, %struct.QemuSemaphore, %struct.QemuSemaphore, %struct.QemuSemaphore, %struct.QemuEvent, i64, ptr, ptr, %struct.QemuMutex, i8, i8, i8, i8, %struct.QemuSemaphore, i8, i8, i8, i8, ptr, ptr, i8, i8 }
%struct.DeviceState = type { %struct.Object, ptr, ptr, i8, i8, i64, ptr, i32, i8, ptr, %struct.NamedGPIOListHead, %struct.NamedClockListHead, %struct.BusStateHead, i32, i32, i32, %struct.ResettableState, ptr, %struct.MemReentrancyGuard }
%struct.Object = type { ptr, ptr, ptr, i32, ptr }
%struct.NamedGPIOListHead = type { ptr }
%struct.NamedClockListHead = type { ptr }
%struct.BusStateHead = type { ptr }
%struct.ResettableState = type { i32, i8, i8 }
%struct.MemReentrancyGuard = type { i8 }
%struct.MigrationParameters = type { i8, i64, i8, i64, i8, i64, i8, i64, i8, i8, i8, i8, i8, i8, i8, i8, i8, i8, i8, i8, i8, i8, i8, i8, ptr, ptr, ptr, i8, i64, i8, i64, i8, i64, i8, i32, i8, i8, i8, i8, i8, i64, i8, i64, i8, i8, i8, i32, i8, i8, i8, i8, i8, ptr, i8, i64, i8, i64, i8, i32 }
%struct.anon.2 = type { ptr, %struct.QemuThread, i8, %struct.QemuSemaphore, %struct.QemuSemaphore }

@.str.151 = private unnamed_addr constant [49 x i8] c"migration: partially unplugged device on failure\00", align 1
@qtest_allowed = external global i8, align 1

; Function Attrs: nounwind sspstrong uwtable
define internal zeroext i1 @qtest_enabled() #0 {
entry:
  %0 = load i8, ptr @qtest_allowed, align 1
  %tobool = trunc i8 %0 to i1
  ret i1 %tobool
}

; Function Attrs: nounwind sspstrong uwtable
define internal void @qemu_savevm_wait_unplug(ptr noundef %s, i32 noundef %old_state, i32 noundef %new_state) #0 {
entry:
  %s.addr = alloca ptr, align 8
  %old_state.addr = alloca i32, align 4
  %new_state.addr = alloca i32, align 4
  %timeout = alloca i32, align 4
  store ptr %s, ptr %s.addr, align 8
  store i32 %old_state, ptr %old_state.addr, align 4
  store i32 %new_state, ptr %new_state.addr, align 4
  %call = call zeroext i1 @qemu_savevm_state_guest_unplug_pending()
  br i1 %call, label %if.then, label %if.else

if.then:                                          ; preds = %entry
  %0 = load ptr, ptr %s.addr, align 8
  %state = getelementptr inbounds %struct.MigrationState, ptr %0, i32 0, i32 16
  %1 = load i32, ptr %old_state.addr, align 4
  call void @migrate_set_state(ptr noundef %state, i32 noundef %1, i32 noundef 13)
  br label %while.cond

while.cond:                                       ; preds = %while.body, %if.then
  %2 = load ptr, ptr %s.addr, align 8
  %state1 = getelementptr inbounds %struct.MigrationState, ptr %2, i32 0, i32 16
  %3 = load i32, ptr %state1, align 8
  %cmp = icmp eq i32 %3, 13
  br i1 %cmp, label %land.rhs, label %land.end

land.rhs:                                         ; preds = %while.cond
  %call2 = call zeroext i1 @qemu_savevm_state_guest_unplug_pending()
  br label %land.end

land.end:                                         ; preds = %land.rhs, %while.cond
  %4 = phi i1 [ false, %while.cond ], [ %call2, %land.rhs ]
  br i1 %4, label %while.body, label %while.end

while.body:                                       ; preds = %land.end
  %5 = load ptr, ptr %s.addr, align 8
  %wait_unplug_sem = getelementptr inbounds %struct.MigrationState, ptr %5, i32 0, i32 31
  %call3 = call i32 @qemu_sem_timedwait(ptr noundef %wait_unplug_sem, i32 noundef 250)
  br label %while.cond, !llvm.loop !19

while.end:                                        ; preds = %land.end
  %6 = load ptr, ptr %s.addr, align 8
  %state4 = getelementptr inbounds %struct.MigrationState, ptr %6, i32 0, i32 16
  %7 = load i32, ptr %state4, align 8
  %cmp5 = icmp ne i32 %7, 13
  br i1 %cmp5, label %if.then6, label %if.end18

if.then6:                                         ; preds = %while.end
  store i32 120, ptr %timeout, align 4
  br label %while.cond7

while.cond7:                                      ; preds = %while.body11, %if.then6
  %8 = load i32, ptr %timeout, align 4
  %dec = add i32 %8, -1
  store i32 %dec, ptr %timeout, align 4
  %tobool = icmp ne i32 %8, 0
  br i1 %tobool, label %land.rhs8, label %land.end10

land.rhs8:                                        ; preds = %while.cond7
  %call9 = call zeroext i1 @qemu_savevm_state_guest_unplug_pending()
  br label %land.end10

land.end10:                                       ; preds = %land.rhs8, %while.cond7
  %9 = phi i1 [ false, %while.cond7 ], [ %call9, %land.rhs8 ]
  br i1 %9, label %while.body11, label %while.end14

while.body11:                                     ; preds = %land.end10
  %10 = load ptr, ptr %s.addr, align 8
  %wait_unplug_sem12 = getelementptr inbounds %struct.MigrationState, ptr %10, i32 0, i32 31
  %call13 = call i32 @qemu_sem_timedwait(ptr noundef %wait_unplug_sem12, i32 noundef 250)
  br label %while.cond7, !llvm.loop !20

while.end14:                                      ; preds = %land.end10
  %call15 = call zeroext i1 @qemu_savevm_state_guest_unplug_pending()
  br i1 %call15, label %land.lhs.true, label %if.end

land.lhs.true:                                    ; preds = %while.end14
  %call16 = call zeroext i1 @qtest_enabled()
  br i1 %call16, label %if.end, label %if.then17

if.then17:                                        ; preds = %land.lhs.true
  call void (ptr, ...) @warn_report(ptr noundef @.str.151)
  br label %if.end

if.end:                                           ; preds = %if.then17, %land.lhs.true, %while.end14
  br label %if.end18

if.end18:                                         ; preds = %if.end, %while.end
  %11 = load ptr, ptr %s.addr, align 8
  %state19 = getelementptr inbounds %struct.MigrationState, ptr %11, i32 0, i32 16
  %12 = load i32, ptr %new_state.addr, align 4
  call void @migrate_set_state(ptr noundef %state19, i32 noundef 13, i32 noundef %12)
  br label %if.end21

if.else:                                          ; preds = %entry
  %13 = load ptr, ptr %s.addr, align 8
  %state20 = getelementptr inbounds %struct.MigrationState, ptr %13, i32 0, i32 16
  %14 = load i32, ptr %old_state.addr, align 4
  %15 = load i32, ptr %new_state.addr, align 4
  call void @migrate_set_state(ptr noundef %state20, i32 noundef %14, i32 noundef %15)
  br label %if.end21

if.end21:                                         ; preds = %if.else, %if.end18
  ret void
}