; Function Attrs: nounwind sspstrong uwtable
define internal fastcc void @qemu_savevm_wait_unplug(ptr noundef %s) unnamed_addr #0 {
entry:
  %call = tail call zeroext i1 @qemu_savevm_state_guest_unplug_pending() #19
  %state = getelementptr inbounds nuw i8, ptr %s, i64 776
  br i1 %call, label %if.then, label %if.end21

if.then:                                          ; preds = %entry
  tail call void @migrate_set_state(ptr noundef nonnull %state, i32 noundef 1, i32 noundef 13)
  %0 = load i32, ptr %state, align 8
  %cmp9 = icmp eq i32 %0, 13
  br i1 %cmp9, label %land.rhs.lr.ph, label %while.cond7.preheader

land.rhs.lr.ph:                                   ; preds = %if.then
  %wait_unplug_sem = getelementptr inbounds nuw i8, ptr %s, i64 1120
  br label %land.rhs

land.rhs:                                         ; preds = %land.rhs.lr.ph, %while.body
  %call2 = tail call zeroext i1 @qemu_savevm_state_guest_unplug_pending() #19
  br i1 %call2, label %while.body, label %while.endthread-pre-split

while.body:                                       ; preds = %land.rhs
  %call3 = tail call i32 @qemu_sem_timedwait(ptr noundef nonnull %wait_unplug_sem, i32 noundef 250) #19
  %1 = load i32, ptr %state, align 8
  %cmp = icmp eq i32 %1, 13
  br i1 %cmp, label %land.rhs, label %while.cond7.preheader, !llvm.loop !13

while.endthread-pre-split:                        ; preds = %land.rhs
  %.pr = load i32, ptr %state, align 8
  %2 = icmp eq i32 %.pr, 13
  br i1 %2, label %if.end21, label %while.cond7.preheader

while.cond7.preheader:                            ; preds = %while.body, %if.then, %while.endthread-pre-split
  %wait_unplug_sem12 = getelementptr inbounds nuw i8, ptr %s, i64 1120
  br label %land.rhs8

land.rhs8:                                        ; preds = %while.cond7.preheader, %while.body11
  %dec10 = phi i32 [ 119, %while.cond7.preheader ], [ %dec, %while.body11 ]
  %call9 = tail call zeroext i1 @qemu_savevm_state_guest_unplug_pending() #19
  br i1 %call9, label %while.body11, label %while.end14

while.body11:                                     ; preds = %land.rhs8
  %call13 = tail call i32 @qemu_sem_timedwait(ptr noundef nonnull %wait_unplug_sem12, i32 noundef 250) #19
  %dec = add nsw i32 %dec10, -1
  %tobool.not = icmp eq i32 %dec10, 0
  br i1 %tobool.not, label %while.end14, label %land.rhs8, !llvm.loop !14

while.end14:                                      ; preds = %while.body11, %land.rhs8
  %call15 = tail call zeroext i1 @qemu_savevm_state_guest_unplug_pending() #19
  br i1 %call15, label %land.lhs.true, label %if.end21

land.lhs.true:                                    ; preds = %while.end14
  %3 = load i8, ptr @qtest_allowed, align 1
  %tobool.i = trunc i8 %3 to i1
  br i1 %tobool.i, label %if.end21, label %if.then17

if.then17:                                        ; preds = %land.lhs.true
  tail call void (ptr, ...) @warn_report(ptr noundef nonnull @.str.151) #19
  br label %if.end21

if.end21:                                         ; preds = %entry, %while.endthread-pre-split, %if.then17, %land.lhs.true, %while.end14
  %.sink = phi i32 [ 13, %while.end14 ], [ 13, %land.lhs.true ], [ 13, %if.then17 ], [ 13, %while.endthread-pre-split ], [ 1, %entry ]
  tail call void @migrate_set_state(ptr noundef nonnull %state, i32 noundef %.sink, i32 noundef 4)
  ret void
}